target datalayout = "e-m:e-p270:32:32-p271:32:32-p272:64:64-i64:64-i128:128-f80:128-n8:16:32:64-S128"
target triple = "x86_64-pc-linux-gnu"

%"class.nix::Pipe" = type { %"class.nix::AutoCloseFD", %"class.nix::AutoCloseFD" }
%"class.nix::AutoCloseFD" = type { i32 }
%class.anon.172 = type { ptr, ptr }

@_ZTIN3nix8SysErrorE = linkonce_odr constant { ptr, ptr, ptr } { ptr getelementptr inbounds (ptr, ptr @_ZTVN10__cxxabiv120__si_class_type_infoE, i64 2), ptr @_ZTSN3nix8SysErrorE, ptr @_ZTIN3nix11SystemErrorE }, comdat, align 8
@.str.92 = private unnamed_addr constant [14 x i8] c"dupping stdin\00", align 1
@.str.93 = private unnamed_addr constant [5 x i8] c"LESS\00", align 1
@.str.94 = private unnamed_addr constant [7 x i8] c"FRSXMK\00", align 1
@.str.95 = private unnamed_addr constant [8 x i8] c"/bin/sh\00", align 1
@.str.96 = private unnamed_addr constant [3 x i8] c"sh\00", align 1
@.str.97 = private unnamed_addr constant [3 x i8] c"-c\00", align 1
@.str.98 = private unnamed_addr constant [6 x i8] c"pager\00", align 1
@.str.99 = private unnamed_addr constant [5 x i8] c"less\00", align 1
@.str.100 = private unnamed_addr constant [5 x i8] c"more\00", align 1
@.str.101 = private unnamed_addr constant [16 x i8] c"executing '%1%'\00", align 1

; Function Attrs: mustprogress uwtable
define internal void @"_ZZN3nix8RunPagerC1EvENK3$_0clEv"(ptr noundef nonnull align 8 dereferenceable(16) %0) #5 align 2 personality ptr @__gxx_personality_v0 {
  %2 = alloca ptr, align 8
  %3 = alloca ptr, align 8
  %4 = alloca i32, align 4
  store ptr %0, ptr %2, align 8
  %5 = load ptr, ptr %2, align 8
  %6 = getelementptr inbounds %class.anon.172, ptr %5, i32 0, i32 0
  %7 = load ptr, ptr %6, align 8
  %8 = getelementptr inbounds %"class.nix::Pipe", ptr %7, i32 0, i32 0
  %9 = call noundef i32 @_ZNK3nix11AutoCloseFD3getEv(ptr noundef nonnull align 4 dereferenceable(4) %8)
  %10 = call i32 @dup2(i32 noundef %9, i32 noundef 0) #1
  %11 = icmp eq i32 %10, -1
  br i1 %11, label %12, label %19

12:                                               ; preds = %1
  %13 = call ptr @__cxa_allocate_exception(i64 384) #1
  invoke void @_ZN3nix8SysErrorC2IJA14_cEEEDpRKT_(ptr noundef nonnull align 8 dereferenceable(380) %13, ptr noundef nonnull align 1 dereferenceable(14) @.str.92)
          to label %14 unwind label %15

14:                                               ; preds = %12
  call void @__cxa_throw(ptr %13, ptr @_ZTIN3nix8SysErrorE, ptr @_ZN3nix8SysErrorD2Ev) #19
  unreachable

15:                                               ; preds = %12
  %16 = landingpad { ptr, i32 }
          cleanup
  %17 = extractvalue { ptr, i32 } %16, 0
  store ptr %17, ptr %3, align 8
  %18 = extractvalue { ptr, i32 } %16, 1
  store i32 %18, ptr %4, align 4
  call void @__cxa_free_exception(ptr %13) #1
  br label %46

19:                                               ; preds = %1
  %20 = call ptr @getenv(ptr noundef @.str.93) #1
  %21 = icmp ne ptr %20, null
  br i1 %21, label %24, label %22

22:                                               ; preds = %19
  %23 = call i32 @setenv(ptr noundef @.str.93, ptr noundef @.str.94, i32 noundef 1) #1
  br label %24

24:                                               ; preds = %22, %19
  call void @_ZN3nix21restoreProcessContextEb(i1 noundef zeroext true)
  %25 = getelementptr inbounds %class.anon.172, ptr %5, i32 0, i32 1
  %26 = load ptr, ptr %25, align 8
  %27 = load ptr, ptr %26, align 8
  %28 = icmp ne ptr %27, null
  br i1 %28, label %29, label %34

29:                                               ; preds = %24
  %30 = getelementptr inbounds %class.anon.172, ptr %5, i32 0, i32 1
  %31 = load ptr, ptr %30, align 8
  %32 = load ptr, ptr %31, align 8
  %33 = call i32 (ptr, ptr, ...) @execl(ptr noundef @.str.95, ptr noundef @.str.96, ptr noundef @.str.97, ptr noundef %32, ptr null) #1
  br label %34

34:                                               ; preds = %29, %24
  %35 = call i32 (ptr, ptr, ...) @execlp(ptr noundef @.str.98, ptr noundef @.str.98, ptr null) #1
  %36 = call i32 (ptr, ptr, ...) @execlp(ptr noundef @.str.99, ptr noundef @.str.99, ptr null) #1
  %37 = call i32 (ptr, ptr, ...) @execlp(ptr noundef @.str.100, ptr noundef @.str.100, ptr null) #1
  %38 = call ptr @__cxa_allocate_exception(i64 384) #1
  %39 = getelementptr inbounds %class.anon.172, ptr %5, i32 0, i32 1
  %40 = load ptr, ptr %39, align 8
  invoke void @_ZN3nix8SysErrorC2IJA16_cPcEEEDpRKT_(ptr noundef nonnull align 8 dereferenceable(380) %38, ptr noundef nonnull align 1 dereferenceable(16) @.str.101, ptr noundef nonnull align 8 dereferenceable(8) %40)
          to label %41 unwind label %42

41:                                               ; preds = %34
  call void @__cxa_throw(ptr %38, ptr @_ZTIN3nix8SysErrorE, ptr @_ZN3nix8SysErrorD2Ev) #19
  unreachable

42:                                               ; preds = %34
  %43 = landingpad { ptr, i32 }
          cleanup
  %44 = extractvalue { ptr, i32 } %43, 0
  store ptr %44, ptr %3, align 8
  %45 = extractvalue { ptr, i32 } %43, 1
  store i32 %45, ptr %4, align 4
  call void @__cxa_free_exception(ptr %38) #1
  br label %46

46:                                               ; preds = %42, %15
  %47 = load ptr, ptr %3, align 8
  %48 = load i32, ptr %4, align 4
  %49 = insertvalue { ptr, i32 } poison, ptr %47, 0
  %50 = insertvalue { ptr, i32 } %49, i32 %48, 1
  resume { ptr, i32 } %50
}

; Function Attrs: mustprogress nounwind uwtable
define linkonce_odr noundef ptr @_ZNKSt9_Any_data9_M_accessEv(ptr noundef nonnull align 8 dereferenceable(16) %0) #2 comdat align 2 {
  %2 = alloca ptr, align 8
  store ptr %0, ptr %2, align 8
  %3 = load ptr, ptr %2, align 8
  %4 = getelementptr inbounds [16 x i8], ptr %3, i64 0, i64 0
  ret ptr %4
}

; Function Attrs: mustprogress uwtable
define internal void @"_ZSt13__invoke_implIvRZN3nix8RunPagerC1EvE3$_0JEET_St14__invoke_otherOT0_DpOT1_"(ptr noundef nonnull align 8 dereferenceable(16) %0) #5 {
  %2 = alloca ptr, align 8
  store ptr %0, ptr %2, align 8
  %3 = load ptr, ptr %2, align 8
  call void @"_ZZN3nix8RunPagerC1EvENK3$_0clEv"(ptr noundef nonnull align 8 dereferenceable(16) %3)
  ret void
}

; Function Attrs: mustprogress nounwind uwtable
define internal noundef nonnull align 8 dereferenceable(16) ptr @"_ZNKSt9_Any_data9_M_accessIZN3nix8RunPagerC1EvE3$_0EERKT_v"(ptr noundef nonnull align 8 dereferenceable(16) %0) #2 align 2 {
  %2 = alloca ptr, align 8
  store ptr %0, ptr %2, align 8
  %3 = load ptr, ptr %2, align 8
  %4 = call noundef ptr @_ZNKSt9_Any_data9_M_accessEv(ptr noundef nonnull align 8 dereferenceable(16) %3) #1
  ret ptr %4
}

; Function Attrs: mustprogress uwtable
define internal void @"_ZSt10__invoke_rIvRZN3nix8RunPagerC1EvE3$_0JEENSt9enable_ifIX16is_invocable_r_vIT_T0_DpT1_EES5_E4typeEOS6_DpOS7_"(ptr noundef nonnull align 8 dereferenceable(16) %0) #5 {
  %2 = alloca ptr, align 8
  store ptr %0, ptr %2, align 8
  %3 = load ptr, ptr %2, align 8
  call void @"_ZSt13__invoke_implIvRZN3nix8RunPagerC1EvE3$_0JEET_St14__invoke_otherOT0_DpOT1_"(ptr noundef nonnull align 8 dereferenceable(16) %3)
  ret void
}

; Function Attrs: mustprogress nounwind uwtable
define internal noundef ptr @"_ZNSt14_Function_base13_Base_managerIZN3nix8RunPagerC1EvE3$_0E14_M_get_pointerERKSt9_Any_data"(ptr noundef nonnull align 8 dereferenceable(16) %0) #2 align 2 {
  %2 = alloca ptr, align 8
  %3 = alloca ptr, align 8
  store ptr %0, ptr %2, align 8
  %4 = load ptr, ptr %2, align 8
  %5 = call noundef nonnull align 8 dereferenceable(16) ptr @"_ZNKSt9_Any_data9_M_accessIZN3nix8RunPagerC1EvE3$_0EERKT_v"(ptr noundef nonnull align 8 dereferenceable(16) %4) #1
  store ptr %5, ptr %3, align 8
  %6 = load ptr, ptr %3, align 8
  ret ptr %6
}

; Function Attrs: mustprogress uwtable
define internal void @"_ZNSt17_Function_handlerIFvvEZN3nix8RunPagerC1EvE3$_0E9_M_invokeERKSt9_Any_data"(ptr noundef nonnull align 8 dereferenceable(16) %0) #5 align 2 {
  %2 = alloca ptr, align 8
  store ptr %0, ptr %2, align 8
  %3 = load ptr, ptr %2, align 8
  %4 = call noundef ptr @"_ZNSt14_Function_base13_Base_managerIZN3nix8RunPagerC1EvE3$_0E14_M_get_pointerERKSt9_Any_data"(ptr noundef nonnull align 8 dereferenceable(16) %3) #1
  call void @"_ZSt10__invoke_rIvRZN3nix8RunPagerC1EvE3$_0JEENSt9enable_ifIX16is_invocable_r_vIT_T0_DpT1_EES5_E4typeEOS6_DpOS7_"(ptr noundef nonnull align 8 dereferenceable(16) %4)
  ret void
}