; Function Attrs: mustprogress noreturn uwtable
define internal void @"_ZNSt17_Function_handlerIFvvEZN3nix8RunPagerC1EvE3$_0E9_M_invokeERKSt9_Any_data"(ptr nocapture noundef nonnull readonly align 8 dereferenceable(16) %0) #11 align 2 personality ptr @__gxx_personality_v0 {
  %2 = load ptr, ptr %0, align 8
  %3 = tail call noundef i32 @_ZNK3nix11AutoCloseFD3getEv(ptr noundef nonnull align 4 dereferenceable(4) %2)
  %4 = tail call i32 @dup2(i32 noundef %3, i32 noundef 0) #30
  %5 = icmp eq i32 %4, -1
  br i1 %5, label %6, label %11

6:                                                ; preds = %1
  %7 = tail call ptr @__cxa_allocate_exception(i64 384) #30
  invoke void @_ZN3nix8SysErrorC2IJA14_cEEEDpRKT_(ptr noundef nonnull align 8 dereferenceable(380) %7, ptr noundef nonnull align 1 dereferenceable(14) @.str.92)
          to label %8 unwind label %9

8:                                                ; preds = %6
  tail call void @__cxa_throw(ptr nonnull %7, ptr nonnull @_ZTIN3nix8SysErrorE, ptr nonnull @_ZN3nix8SysErrorD2Ev) #31
  unreachable

9:                                                ; preds = %6
  %10 = landingpad { ptr, i32 }
          cleanup
  br label %30

11:                                               ; preds = %1
  %12 = tail call ptr @getenv(ptr noundef nonnull @.str.93) #30
  %.not.i.i.i = icmp eq ptr %12, null
  br i1 %.not.i.i.i, label %13, label %15

13:                                               ; preds = %11
  %14 = tail call i32 @setenv(ptr noundef nonnull @.str.93, ptr noundef nonnull @.str.94, i32 noundef 1) #30
  br label %15

15:                                               ; preds = %13, %11
  tail call void @_ZN3nix21restoreProcessContextEb(i1 noundef zeroext true)
  %16 = getelementptr inbounds i8, ptr %0, i64 8
  %17 = load ptr, ptr %16, align 8
  %18 = load ptr, ptr %17, align 8
  %.not4.i.i.i = icmp eq ptr %18, null
  br i1 %.not4.i.i.i, label %21, label %19

19:                                               ; preds = %15
  %20 = tail call i32 (ptr, ptr, ...) @execl(ptr noundef nonnull @.str.95, ptr noundef nonnull @.str.96, ptr noundef nonnull @.str.97, ptr noundef nonnull %18, ptr null) #30
  br label %21

21:                                               ; preds = %19, %15
  %22 = tail call i32 (ptr, ptr, ...) @execlp(ptr noundef nonnull @.str.98, ptr noundef nonnull @.str.98, ptr null) #30
  %23 = tail call i32 (ptr, ptr, ...) @execlp(ptr noundef nonnull @.str.99, ptr noundef nonnull @.str.99, ptr null) #30
  %24 = tail call i32 (ptr, ptr, ...) @execlp(ptr noundef nonnull @.str.100, ptr noundef nonnull @.str.100, ptr null) #30
  %25 = tail call ptr @__cxa_allocate_exception(i64 384) #30
  %26 = load ptr, ptr %16, align 8
  invoke void @_ZN3nix8SysErrorC2IJA16_cPcEEEDpRKT_(ptr noundef nonnull align 8 dereferenceable(380) %25, ptr noundef nonnull align 1 dereferenceable(16) @.str.101, ptr noundef nonnull align 8 dereferenceable(8) %26)
          to label %27 unwind label %28

27:                                               ; preds = %21
  tail call void @__cxa_throw(ptr nonnull %25, ptr nonnull @_ZTIN3nix8SysErrorE, ptr nonnull @_ZN3nix8SysErrorD2Ev) #31
  unreachable

28:                                               ; preds = %21
  %29 = landingpad { ptr, i32 }
          cleanup
  br label %30

30:                                               ; preds = %28, %9
  %.sink.i.i.i = phi ptr [ %25, %28 ], [ %7, %9 ]
  %.pn.i.i.i = phi { ptr, i32 } [ %29, %28 ], [ %10, %9 ]
  tail call void @__cxa_free_exception(ptr %.sink.i.i.i) #30
  resume { ptr, i32 } %.pn.i.i.i
}